target datalayout = "e-m:e-p270:32:32-p271:32:32-p272:64:64-i64:64-i128:128-f80:128-n8:16:32:64-S128"
target triple = "x86_64-pc-linux-gnu"

@utp_analyze_seq = internal global i32 1, align 4
@proto_bt_utp = internal global i32 0, align 4
@proto_register_bt_utp.ett = internal global [2 x ptr] [ptr @ett_bt_utp, ptr @ett_bt_utp_extension], align 16
@.str.50 = private unnamed_addr constant [28 x i8] c"uTorrent Transport Protocol\00", align 1
@.str.51 = private unnamed_addr constant [7 x i8] c"BT-uTP\00", align 1
@.str.52 = private unnamed_addr constant [7 x i8] c"bt-utp\00", align 1
@.str.53 = private unnamed_addr constant [7 x i8] c"enable\00", align 1
@.str.54 = private unnamed_addr constant [25 x i8] c"analyze_sequence_numbers\00", align 1
@.str.55 = private unnamed_addr constant [29 x i8] c"Analyze uTP sequence numbers\00", align 1
@.str.56 = private unnamed_addr constant [206 x i8] c"Make the uTP dissector analyze uTP sequence numbers. Currently this just means that it tries to find the correct start offset of a PDU if it detected that previous in-order packets spanned multiple frames.\00", align 1
@.str.57 = private unnamed_addr constant [16 x i8] c"enable_version0\00", align 1
@.str.58 = private unnamed_addr constant [39 x i8] c"Dissect prerelease (version 0) packets\00", align 1
@.str.59 = private unnamed_addr constant [128 x i8] c"Whether the dissector should attempt to dissect packets with the obsolete format (version 0) that predates BEP 29 (22-Jun-2009)\00", align 1
@enable_version0 = internal global i32 0, align 4
@.str.60 = private unnamed_addr constant [16 x i8] c"max_window_size\00", align 1
@.str.61 = private unnamed_addr constant [29 x i8] c"Maximum window size (in hex)\00", align 1
@max_window_size = internal global i32 3670016, align 4
@bt_utp_handle = internal global ptr null, align 8

; Function Attrs: nounwind uwtable
define hidden void @proto_register_bt_utp() #0 {
  %1 = alloca ptr, align 8
  %2 = alloca ptr, align 8
  %3 = call i32 @proto_register_protocol(ptr noundef @.str.50, ptr noundef @.str.51, ptr noundef @.str.52)
  store i32 %3, ptr @proto_bt_utp, align 4
  %4 = load i32, ptr @proto_bt_utp, align 4
  %5 = call ptr @prefs_register_protocol(i32 noundef %4, ptr noundef null)
  store ptr %5, ptr %1, align 8
  %6 = load ptr, ptr %1, align 8
  call void @prefs_register_obsolete_preference(ptr noundef %6, ptr noundef @.str.53)
  %7 = load ptr, ptr %1, align 8
  call void @prefs_register_bool_preference(ptr noundef %7, ptr noundef @.str.54, ptr noundef @.str.55, ptr noundef @.str.56, ptr noundef @utp_analyze_seq)
  %8 = load ptr, ptr %1, align 8
  call void @prefs_register_bool_preference(ptr noundef %8, ptr noundef @.str.57, ptr noundef @.str.58, ptr noundef @.str.59, ptr noundef @enable_version0)
  %9 = load ptr, ptr %1, align 8
  call void @prefs_register_uint_preference(ptr noundef %9, ptr noundef @.str.60, ptr noundef @.str.61, ptr noundef @.str.62, i32 noundef 16, ptr noundef @max_window_size)
  %10 = load i32, ptr @proto_bt_utp, align 4
  call void @proto_register_field_array(i32 noundef %10, ptr noundef @proto_register_bt_utp.hf, i32 noundef 23)
  call void @proto_register_subtree_array(ptr noundef @proto_register_bt_utp.ett, i32 noundef 2)
  %11 = load i32, ptr @proto_bt_utp, align 4
  %12 = call ptr @expert_register_protocol(i32 noundef %11)
  store ptr %12, ptr %2, align 8
  %13 = load ptr, ptr %2, align 8
  call void @expert_register_field_array(ptr noundef %13, ptr noundef @proto_register_bt_utp.ei, i32 noundef 1)
  call void @register_init_routine(ptr noundef @utp_init)
  %14 = load i32, ptr @proto_bt_utp, align 4
  %15 = call ptr @register_dissector(ptr noundef @.str.52, ptr noundef @dissect_bt_utp, i32 noundef %14)
  store ptr %15, ptr @bt_utp_handle, align 8
  ret void
}