; Function Attrs: nounwind uwtable
define hidden void @proto_register_bt_utp() local_unnamed_addr #0 {
  %1 = tail call i32 @proto_register_protocol(ptr noundef nonnull @.str.50, ptr noundef nonnull @.str.51, ptr noundef nonnull @.str.52) #8
  store i32 %1, ptr @proto_bt_utp, align 4
  %2 = tail call ptr @prefs_register_protocol(i32 noundef %1, ptr noundef null) #8
  tail call void @prefs_register_obsolete_preference(ptr noundef %2, ptr noundef nonnull @.str.53) #8
  tail call void @prefs_register_bool_preference(ptr noundef %2, ptr noundef nonnull @.str.54, ptr noundef nonnull @.str.55, ptr noundef nonnull @.str.56, ptr noundef nonnull @utp_analyze_seq) #8
  tail call void @prefs_register_bool_preference(ptr noundef %2, ptr noundef nonnull @.str.57, ptr noundef nonnull @.str.58, ptr noundef nonnull @.str.59, ptr noundef nonnull @enable_version0) #8
  tail call void @prefs_register_uint_preference(ptr noundef %2, ptr noundef nonnull @.str.60, ptr noundef nonnull @.str.61, ptr noundef nonnull @.str.62, i32 noundef 16, ptr noundef nonnull @max_window_size) #8
  %3 = load i32, ptr @proto_bt_utp, align 4
  tail call void @proto_register_field_array(i32 noundef %3, ptr noundef nonnull @proto_register_bt_utp.hf, i32 noundef 23) #8
  tail call void @proto_register_subtree_array(ptr noundef nonnull @proto_register_bt_utp.ett, i32 noundef 2) #8
  %4 = load i32, ptr @proto_bt_utp, align 4
  %5 = tail call ptr @expert_register_protocol(i32 noundef %4) #8
  tail call void @expert_register_field_array(ptr noundef %5, ptr noundef nonnull @proto_register_bt_utp.ei, i32 noundef 1) #8
  tail call void @register_init_routine(ptr noundef nonnull @utp_init) #8
  %6 = load i32, ptr @proto_bt_utp, align 4
  %7 = tail call ptr @register_dissector(ptr noundef nonnull @.str.52, ptr noundef nonnull @dissect_bt_utp, i32 noundef %6) #8
  store ptr %7, ptr @bt_utp_handle, align 8
  ret void
}